target datalayout = "e-m:e-p270:32:32-p271:32:32-p272:64:64-i64:64-i128:128-f80:128-n8:16:32:64-S128"
target triple = "x86_64-pc-linux-gnu"

@.str.9 = private unnamed_addr constant [31 x i8] c"../openssl/test/fake_rsaprov.c\00", align 1
@.str.19 = private unnamed_addr constant [7 x i8] c"sigctx\00", align 1
@.str.25 = private unnamed_addr constant [8 x i8] c"sigsize\00", align 1
@.str.26 = private unnamed_addr constant [8 x i8] c"*siglen\00", align 1

; Function Attrs: nounwind uwtable
define internal i32 @fake_rsa_dgstsgnvfy_final(ptr noundef %0, ptr noundef %1, ptr noundef %2, i64 noundef %3) #0 {
  %5 = alloca i32, align 4
  %6 = alloca ptr, align 8
  %7 = alloca ptr, align 8
  %8 = alloca ptr, align 8
  %9 = alloca i64, align 8
  %10 = alloca ptr, align 8
  %11 = alloca i32, align 4
  store ptr %0, ptr %6, align 8, !tbaa !19
  store ptr %1, ptr %7, align 8, !tbaa !22
  store ptr %2, ptr %8, align 8, !tbaa !31
  store i64 %3, ptr %9, align 8, !tbaa !33
  call void @llvm.lifetime.start.p0(i64 8, ptr %10) #6
  %12 = load ptr, ptr %6, align 8, !tbaa !19
  store ptr %12, ptr %10, align 8, !tbaa !22
  %13 = load ptr, ptr %10, align 8, !tbaa !22
  %14 = call i32 @test_ptr(ptr noundef @.str.9, i32 noundef 441, ptr noundef @.str.19, ptr noundef %13)
  %15 = icmp ne i32 %14, 0
  br i1 %15, label %17, label %16

16:                                               ; preds = %4
  store i32 0, ptr %5, align 4
  store i32 1, ptr %11, align 4
  br label %83

17:                                               ; preds = %4
  %18 = load ptr, ptr %10, align 8, !tbaa !22
  %19 = load i8, ptr %18, align 1, !tbaa !30
  %20 = zext i8 %19 to i32
  %21 = icmp eq i32 %20, 0
  br i1 %21, label %28, label %22

22:                                               ; preds = %17
  %23 = load ptr, ptr %10, align 8, !tbaa !22
  %24 = load i8, ptr %23, align 1, !tbaa !30
  %25 = zext i8 %24 to i32
  %26 = and i32 %25, 8
  %27 = icmp ne i32 %26, 0
  br i1 %27, label %28, label %29

28:                                               ; preds = %22, %17
  store i32 0, ptr %5, align 4
  store i32 1, ptr %11, align 4
  br label %83

29:                                               ; preds = %22
  %30 = load ptr, ptr %10, align 8, !tbaa !22
  %31 = load i8, ptr %30, align 1, !tbaa !30
  %32 = zext i8 %31 to i32
  %33 = and i32 %32, 1
  %34 = icmp ne i32 %33, 0
  br i1 %34, label %35, label %39

35:                                               ; preds = %29
  %36 = load ptr, ptr %8, align 8, !tbaa !31
  %37 = icmp eq ptr %36, null
  br i1 %37, label %38, label %39

38:                                               ; preds = %35
  store i32 0, ptr %5, align 4
  store i32 1, ptr %11, align 4
  br label %83

39:                                               ; preds = %35, %29
  %40 = load ptr, ptr %10, align 8, !tbaa !22
  %41 = load i8, ptr %40, align 1, !tbaa !30
  %42 = zext i8 %41 to i32
  %43 = and i32 %42, 2
  %44 = icmp ne i32 %43, 0
  br i1 %44, label %45, label %49

45:                                               ; preds = %39
  %46 = load ptr, ptr %8, align 8, !tbaa !31
  %47 = icmp ne ptr %46, null
  br i1 %47, label %48, label %49

48:                                               ; preds = %45
  store i32 0, ptr %5, align 4
  store i32 1, ptr %11, align 4
  br label %83

49:                                               ; preds = %45, %39
  %50 = load ptr, ptr %8, align 8, !tbaa !31
  %51 = icmp ne ptr %50, null
  br i1 %51, label %52, label %70

52:                                               ; preds = %49
  %53 = load ptr, ptr %8, align 8, !tbaa !31
  store i64 256, ptr %53, align 8, !tbaa !33
  %54 = load ptr, ptr %7, align 8, !tbaa !22
  %55 = icmp ne ptr %54, null
  br i1 %55, label %56, label %69

56:                                               ; preds = %52
  %57 = load i64, ptr %9, align 8, !tbaa !33
  %58 = trunc i64 %57 to i32
  %59 = load ptr, ptr %8, align 8, !tbaa !31
  %60 = load i64, ptr %59, align 8, !tbaa !33
  %61 = trunc i64 %60 to i32
  %62 = call i32 @test_int_ge(ptr noundef @.str.9, i32 noundef 458, ptr noundef @.str.25, ptr noundef @.str.26, i32 noundef %58, i32 noundef %61)
  %63 = icmp ne i32 %62, 0
  br i1 %63, label %65, label %64

64:                                               ; preds = %56
  store i32 0, ptr %5, align 4
  store i32 1, ptr %11, align 4
  br label %83

65:                                               ; preds = %56
  %66 = load ptr, ptr %7, align 8, !tbaa !22
  %67 = load ptr, ptr %8, align 8, !tbaa !31
  %68 = load i64, ptr %67, align 8, !tbaa !33
  call void @llvm.memset.p0.i64(ptr align 1 %66, i8 97, i64 %68, i1 false)
  br label %69

69:                                               ; preds = %65, %52
  br label %70

70:                                               ; preds = %69, %49
  %71 = load ptr, ptr %10, align 8, !tbaa !22
  %72 = load i8, ptr %71, align 1, !tbaa !30
  %73 = zext i8 %72 to i32
  %74 = and i32 %73, 160
  %75 = icmp ne i32 %74, 0
  br i1 %75, label %76, label %82

76:                                               ; preds = %70
  %77 = load ptr, ptr %10, align 8, !tbaa !22
  %78 = load i8, ptr %77, align 1, !tbaa !30
  %79 = zext i8 %78 to i32
  %80 = or i32 %79, 8
  %81 = trunc i32 %80 to i8
  store i8 %81, ptr %77, align 1, !tbaa !30
  br label %82

82:                                               ; preds = %76, %70
  store i32 1, ptr %5, align 4
  store i32 1, ptr %11, align 4
  br label %83

83:                                               ; preds = %82, %64, %48, %38, %28, %16
  call void @llvm.lifetime.end.p0(i64 8, ptr %10) #6
  %84 = load i32, ptr %5, align 4
  ret i32 %84
}