; Function Attrs: nounwind uwtable
define internal range(i32 0, 2) i32 @fake_rsa_dgstsgnvfy_final(ptr noundef %0, ptr noundef writeonly captures(address_is_null) %1, ptr noundef captures(address_is_null) %2, i64 noundef %3) #1 {
  %5 = tail call i32 @test_ptr(ptr noundef nonnull @.str.9, i32 noundef 441, ptr noundef nonnull @.str.19, ptr noundef %0) #12
  %.not = icmp eq i32 %5, 0
  br i1 %.not, label %31, label %6

6:                                                ; preds = %4
  %7 = load i8, ptr %0, align 1, !tbaa !14
  %8 = zext i8 %7 to i32
  %9 = icmp ne i8 %7, 0
  %10 = and i32 %8, 8
  %.not23 = icmp eq i32 %10, 0
  %or.cond27 = and i1 %9, %.not23
  br i1 %or.cond27, label %11, label %31

11:                                               ; preds = %6
  %12 = and i32 %8, 1
  %13 = icmp ne i32 %12, 0
  %14 = icmp eq ptr %2, null
  %or.cond = and i1 %14, %13
  br i1 %or.cond, label %31, label %15

15:                                               ; preds = %11
  %16 = and i32 %8, 2
  %17 = icmp ne i32 %16, 0
  %18 = icmp ne ptr %2, null
  %or.cond3 = and i1 %18, %17
  br i1 %or.cond3, label %31, label %19

19:                                               ; preds = %15
  br i1 %18, label %20, label %26

20:                                               ; preds = %19
  store i64 256, ptr %2, align 8, !tbaa !15
  %.not24 = icmp eq ptr %1, null
  br i1 %.not24, label %26, label %21

21:                                               ; preds = %20
  %22 = trunc i64 %3 to i32
  %23 = tail call i32 @test_int_ge(ptr noundef nonnull @.str.9, i32 noundef 458, ptr noundef nonnull @.str.25, ptr noundef nonnull @.str.26, i32 noundef %22, i32 noundef 256) #12
  %.not25 = icmp eq i32 %23, 0
  br i1 %.not25, label %31, label %24

24:                                               ; preds = %21
  %25 = load i64, ptr %2, align 8, !tbaa !15
  tail call void @llvm.memset.p0.i64(ptr nonnull align 1 %1, i8 97, i64 %25, i1 false)
  br label %26

26:                                               ; preds = %20, %24, %19
  %27 = load i8, ptr %0, align 1, !tbaa !14
  %28 = and i8 %27, -96
  %.not26 = icmp eq i8 %28, 0
  br i1 %.not26, label %31, label %29

29:                                               ; preds = %26
  %30 = or i8 %27, 8
  store i8 %30, ptr %0, align 1, !tbaa !14
  br label %31

31:                                               ; preds = %26, %29, %21, %15, %11, %6, %4
  %.0 = phi i32 [ 0, %4 ], [ 0, %6 ], [ 0, %11 ], [ 0, %15 ], [ 0, %21 ], [ 1, %29 ], [ 1, %26 ]
  ret i32 %.0
}